; Function Attrs: mustprogress nounwind willreturn uwtable
define void @Cec_ManPatStop(ptr noundef captures(none) %0) local_unnamed_addr #10 {
  %2 = getelementptr inbounds nuw i8, ptr %0, i64 16
  %3 = load ptr, ptr %2, align 8, !tbaa !74
  %4 = getelementptr inbounds nuw i8, ptr %3, i64 8
  %5 = load ptr, ptr %4, align 8, !tbaa !73
  %.not.i = icmp eq ptr %5, null
  br i1 %.not.i, label %Vec_StrFree.exit, label %6

6:                                                ; preds = %1
  tail call void @free(ptr noundef nonnull %5) #18
  br label %Vec_StrFree.exit

Vec_StrFree.exit:                                 ; preds = %1, %6
  tail call void @free(ptr noundef nonnull %3) #18
  %7 = load ptr, ptr %0, align 8, !tbaa !76
  %8 = getelementptr inbounds nuw i8, ptr %7, i64 8
  %9 = load ptr, ptr %8, align 8, !tbaa !43
  %.not.i5 = icmp eq ptr %9, null
  br i1 %.not.i5, label %Vec_IntFree.exit, label %10

10:                                               ; preds = %Vec_StrFree.exit
  tail call void @free(ptr noundef nonnull %9) #18
  br label %Vec_IntFree.exit

Vec_IntFree.exit:                                 ; preds = %Vec_StrFree.exit, %10
  tail call void @free(ptr noundef nonnull %7) #18
  %11 = getelementptr inbounds nuw i8, ptr %0, i64 8
  %12 = load ptr, ptr %11, align 8, !tbaa !77
  %13 = getelementptr inbounds nuw i8, ptr %12, i64 8
  %14 = load ptr, ptr %13, align 8, !tbaa !43
  %.not.i6 = icmp eq ptr %14, null
  br i1 %.not.i6, label %Vec_IntFree.exit7, label %15

15:                                               ; preds = %Vec_IntFree.exit
  tail call void @free(ptr noundef nonnull %14) #18
  br label %Vec_IntFree.exit7

Vec_IntFree.exit7:                                ; preds = %Vec_IntFree.exit, %15
  tail call void @free(ptr noundef nonnull %12) #18
  tail call void @free(ptr noundef nonnull %0) #18
  ret void
}